target datalayout = "e-m:e-p270:32:32-p271:32:32-p272:64:64-i64:64-i128:128-f80:128-n8:16:32:64-S128"
target triple = "x86_64-pc-linux-gnu"

%"struct.duckdb_brotli::ZopfliNode" = type { i32, i32, i32, %union.anon }
%union.anon = type { float }

; Function Attrs: mustprogress nounwind uwtable
define void @_ZN13duckdb_brotli21BrotliInitZopfliNodesEPNS_10ZopfliNodeEm(ptr noundef %0, i64 noundef %1) #0 {
  %3 = alloca ptr, align 8
  %4 = alloca i64, align 8
  %5 = alloca %"struct.duckdb_brotli::ZopfliNode", align 4
  %6 = alloca i64, align 8
  store ptr %0, ptr %3, align 8, !tbaa !3
  store i64 %1, ptr %4, align 8, !tbaa !8
  call void @llvm.lifetime.start.p0(i64 16, ptr %5) #11
  call void @llvm.lifetime.start.p0(i64 8, ptr %6) #11
  %7 = getelementptr inbounds nuw %"struct.duckdb_brotli::ZopfliNode", ptr %5, i32 0, i32 0
  store i32 1, ptr %7, align 4, !tbaa !10
  %8 = getelementptr inbounds nuw %"struct.duckdb_brotli::ZopfliNode", ptr %5, i32 0, i32 1
  store i32 0, ptr %8, align 4, !tbaa !13
  %9 = getelementptr inbounds nuw %"struct.duckdb_brotli::ZopfliNode", ptr %5, i32 0, i32 2
  store i32 0, ptr %9, align 4, !tbaa !14
  %10 = getelementptr inbounds nuw %"struct.duckdb_brotli::ZopfliNode", ptr %5, i32 0, i32 3
  store float 0x47DFF933C0000000, ptr %10, align 4, !tbaa !15
  store i64 0, ptr %6, align 8, !tbaa !8
  br label %11

11:                                               ; preds = %19, %2
  %12 = load i64, ptr %6, align 8, !tbaa !8
  %13 = load i64, ptr %4, align 8, !tbaa !8
  %14 = icmp ult i64 %12, %13
  br i1 %14, label %15, label %22

15:                                               ; preds = %11
  %16 = load ptr, ptr %3, align 8, !tbaa !3
  %17 = load i64, ptr %6, align 8, !tbaa !8
  %18 = getelementptr inbounds nuw %"struct.duckdb_brotli::ZopfliNode", ptr %16, i64 %17
  call void @llvm.memcpy.p0.p0.i64(ptr align 4 %18, ptr align 4 %5, i64 16, i1 false), !tbaa.struct !16
  br label %19

19:                                               ; preds = %15
  %20 = load i64, ptr %6, align 8, !tbaa !8
  %21 = add i64 %20, 1
  store i64 %21, ptr %6, align 8, !tbaa !8
  br label %11, !llvm.loop !18

22:                                               ; preds = %11
  call void @llvm.lifetime.end.p0(i64 8, ptr %6) #11
  call void @llvm.lifetime.end.p0(i64 16, ptr %5) #11
  ret void
}